ccollections
defaultdict
p1
(c__builtin__
int
p2
tRp3
S' '
I4
sS'$'
I61
sS'('
I74
sS','
I19
sS'0'
I39
sS'4'
I42
sS'8'
I41
sS'@'
I5
sS'D'
I55
sS'H'
I56
sS'L'
I22
sS'P'
I46
sS'T'
I31
sS'X'
I75
sS'\\'
I84
sS'`'
I89
sS'd'
I0
sS'h'
I13
sS'l'
I18
sS'p'
I24
sS't'
I12
sS'x'
I69
sS'|'
I86
sS'#'
I36
sS"'"
I27
sS'+'
I87
sS'/'
I53
sS'3'
I51
sS'7'
I52
sS';'
I50
sS'?'
I25
sS'C'
I26
sS'G'
I43
sS'K'
I79
sS'O'
I16
sS'S'
I45
sS'W'
I37
sS'['
I81
sS'_'
I73
sS'c'
I8
sS'g'
I17
sS'k'
I30
sS'o'
I9
sS's'
I10
sS'w'
I15
sS'"'
I60
sS'&'
I65
sS'*'
I83
sS'.'
I29
sS'2'
I32
sS'6'
I62
sS':'
I77
sS'B'
I35
sS'F'
I70
sS'J'
I49
sS'N'
I76
sS'R'
I48
sS'V'
I71
sS'Z'
I80
sS'^'
I90
sS'b'
I20
sS'f'
I11
sS'j'
I66
sS'n'
I14
sS'r'
I3
sS'v'
I44
sS'z'
I64
sS'~'
I88
sS'!'
I34
sS'%'
I85
sS')'
I58
sS'-'
I68
sS'1'
I38
sS'5'
I54
sS'9'
I40
sS'='
I57
sS'A'
I59
sS'E'
I67
sS'I'
I33
sS'M'
I6
sS'Q'
I78
sS'U'
I47
sS'Y'
I72
sS']'
I82
sS'a'
I2
sS'e'
I1
sS'i'
I7
sS'm'
I28
sS'q'
I63
sS'u'
I21
sS'y'
I23
sS'}'
I91
s.