(dp1
V 
I4
sV$
I77
sV(
I73
sV0
I36
sV4
I44
sV8
I43
sV@
I5
sVD
I53
sVH
I65
sVL
I49
sVP
I47
sVT
I26
sVX
I75
sV\u005c
I83
sV`
I89
sVd
I0
sVh
I13
sVl
I18
sVp
I28
sVt
I12
sVx
I39
sV|
I85
sV#
I34
sV'
I24
sV+
I88
sV/
I59
sV3
I52
sV7
I72
sV;
I51
sV?
I40
sVC
I56
sVG
I45
sVK
I60
sVO
I16
sVS
I46
sVW
I38
sV[
I80
sV_
I70
sVc
I8
sVg
I17
sVk
I23
sVo
I9
sVs
I10
sVw
I15
sV{
I90
sV"
I64
sV&
I55
sV*
I82
sV.
I25
sV2
I27
sV6
I69
sV:
I62
sVB
I66
sVF
I63
sVJ
I50
sVN
I31
sVR
I48
sVV
I61
sVZ
I79
sV^
I84
sVb
I19
sVf
I11
sVj
I41
sVn
I14
sVr
I3
sVv
I33
sVz
I54
sV~
I87
sV!
I30
sV%
I86
sV)
I74
sV-
I58
sV1
I35
sV5
I68
sV9
I42
sV=
I78
sVA
I32
sVE
I57
sVI
I29
sVM
I6
sVQ
I76
sVU
I37
sVY
I67
sV]
I81
sVa
I2
sVe
I1
sVi
I7
sVm
I22
sVq
I71
sVu
I20
sVy
I21
sV}
I91
s.